; Function Attrs: mustprogress nounwind uwtable
define dso_local void @_ZN4node9inspector15InspectorSocket14SwitchProtocolEPNS0_15ProtocolHandlerE(ptr nocapture noundef nonnull align 8 dereferenceable(8) %this, ptr noundef %handler) local_unnamed_addr #0 align 2 {
entry:
  %0 = load ptr, ptr %this, align 8
  store ptr %handler, ptr %this, align 8
  %tobool.not.i.i = icmp eq ptr %0, null
  br i1 %tobool.not.i.i, label %_ZNSt10unique_ptrIN4node9inspector15ProtocolHandlerENS0_15FunctionDeleterIS2_XadL_ZNS1_15InspectorSocket8ShutdownEPS2_EEEEE5resetES5_.exit, label %if.then.i.i

if.then.i.i:                                      ; preds = %entry
  %vtable.i.i.i.i = load ptr, ptr %0, align 8
  %vfn.i.i.i.i = getelementptr inbounds i8, ptr %vtable.i.i.i.i, i64 40
  %1 = load ptr, ptr %vfn.i.i.i.i, align 8
  tail call void %1(ptr noundef nonnull align 8 dereferenceable(24) %0) #19
  br label %_ZNSt10unique_ptrIN4node9inspector15ProtocolHandlerENS0_15FunctionDeleterIS2_XadL_ZNS1_15InspectorSocket8ShutdownEPS2_EEEEE5resetES5_.exit

_ZNSt10unique_ptrIN4node9inspector15ProtocolHandlerENS0_15FunctionDeleterIS2_XadL_ZNS1_15InspectorSocket8ShutdownEPS2_EEEEE5resetES5_.exit: ; preds = %entry, %if.then.i.i
  ret void
}